target datalayout = "e-m:e-p270:32:32-p271:32:32-p272:64:64-i64:64-i128:128-f80:128-n8:16:32:64-S128"
target triple = "x86_64-pc-linux-gnu"

%struct.job_queue_rec = type { i32, i32, ptr, ptr, i32, ptr, ptr, i8 }
%struct.part_record = type { i32, ptr, ptr, ptr, ptr, ptr, ptr, i32, ptr, ptr, ptr, ptr, ptr, i32, i64, i32, ptr, ptr, ptr, ptr, ptr, i32, i32, ptr, i32, i32, i64, i32, i32, i16, i32, i32, i32, i32, ptr, ptr, ptr, ptr, ptr, double, i16, i16, i16, i16, ptr, ptr, i16, i16, i32, i16, i32, i32, i32, i32, i16, ptr, ptr, ptr }

; Function Attrs: nounwind uwtable
define dso_local zeroext i1 @preempt_p_job_preempt_check(ptr noundef %0, ptr noundef %1) #0 {
  %3 = alloca i1, align 1
  %4 = alloca ptr, align 8
  %5 = alloca ptr, align 8
  store ptr %0, ptr %4, align 8
  store ptr %1, ptr %5, align 8
  %6 = load ptr, ptr %4, align 8
  %7 = getelementptr inbounds nuw %struct.job_queue_rec, ptr %6, i32 0, i32 3
  %8 = load ptr, ptr %7, align 8
  %9 = icmp ne ptr %8, null
  br i1 %9, label %10, label %43

10:                                               ; preds = %2
  %11 = load ptr, ptr %5, align 8
  %12 = getelementptr inbounds nuw %struct.job_queue_rec, ptr %11, i32 0, i32 3
  %13 = load ptr, ptr %12, align 8
  %14 = icmp ne ptr %13, null
  br i1 %14, label %15, label %43

15:                                               ; preds = %10
  %16 = load ptr, ptr %4, align 8
  %17 = getelementptr inbounds nuw %struct.job_queue_rec, ptr %16, i32 0, i32 3
  %18 = load ptr, ptr %17, align 8
  %19 = getelementptr inbounds nuw %struct.part_record, ptr %18, i32 0, i32 35
  %20 = load ptr, ptr %19, align 8
  %21 = load ptr, ptr %5, align 8
  %22 = getelementptr inbounds nuw %struct.job_queue_rec, ptr %21, i32 0, i32 3
  %23 = load ptr, ptr %22, align 8
  %24 = getelementptr inbounds nuw %struct.part_record, ptr %23, i32 0, i32 35
  %25 = load ptr, ptr %24, align 8
  %26 = call i32 @bit_overlap_any(ptr noundef %20, ptr noundef %25)
  %27 = icmp ne i32 %26, 0
  br i1 %27, label %28, label %43

28:                                               ; preds = %15
  %29 = load ptr, ptr %4, align 8
  %30 = getelementptr inbounds nuw %struct.job_queue_rec, ptr %29, i32 0, i32 3
  %31 = load ptr, ptr %30, align 8
  %32 = getelementptr inbounds nuw %struct.part_record, ptr %31, i32 0, i32 43
  %33 = load i16, ptr %32, align 2
  %34 = zext i16 %33 to i32
  %35 = load ptr, ptr %5, align 8
  %36 = getelementptr inbounds nuw %struct.job_queue_rec, ptr %35, i32 0, i32 3
  %37 = load ptr, ptr %36, align 8
  %38 = getelementptr inbounds nuw %struct.part_record, ptr %37, i32 0, i32 43
  %39 = load i16, ptr %38, align 2
  %40 = zext i16 %39 to i32
  %41 = icmp sgt i32 %34, %40
  br i1 %41, label %42, label %43

42:                                               ; preds = %28
  store i1 true, ptr %3, align 1
  br label %44

43:                                               ; preds = %28, %15, %10, %2
  store i1 false, ptr %3, align 1
  br label %44

44:                                               ; preds = %43, %42
  %45 = load i1, ptr %3, align 1
  ret i1 %45
}