; Function Attrs: nounwind uwtable
define dso_local noundef zeroext i1 @preempt_p_job_preempt_check(ptr noundef readonly captures(none) %0, ptr noundef readonly captures(none) %1) local_unnamed_addr #0 {
  %3 = getelementptr inbounds nuw i8, ptr %0, i64 16
  %4 = load ptr, ptr %3, align 8
  %.not = icmp eq ptr %4, null
  br i1 %.not, label %22, label %5

5:                                                ; preds = %2
  %6 = getelementptr inbounds nuw i8, ptr %1, i64 16
  %7 = load ptr, ptr %6, align 8
  %.not9 = icmp eq ptr %7, null
  br i1 %.not9, label %22, label %8

8:                                                ; preds = %5
  %9 = getelementptr inbounds nuw i8, ptr %4, i64 240
  %10 = load ptr, ptr %9, align 8
  %11 = getelementptr inbounds nuw i8, ptr %7, i64 240
  %12 = load ptr, ptr %11, align 8
  %13 = tail call i32 @bit_overlap_any(ptr noundef %10, ptr noundef %12) #5
  %.not10 = icmp eq i32 %13, 0
  br i1 %.not10, label %22, label %14

14:                                               ; preds = %8
  %15 = load ptr, ptr %3, align 8
  %16 = getelementptr inbounds nuw i8, ptr %15, i64 286
  %17 = load i16, ptr %16, align 2
  %18 = load ptr, ptr %6, align 8
  %19 = getelementptr inbounds nuw i8, ptr %18, i64 286
  %20 = load i16, ptr %19, align 2
  %21 = icmp ugt i16 %17, %20
  br i1 %21, label %23, label %22

22:                                               ; preds = %14, %8, %5, %2
  br label %23

23:                                               ; preds = %14, %22
  %.0 = phi i1 [ false, %22 ], [ true, %14 ]
  ret i1 %.0
}